target datalayout = "e-m:e-p270:32:32-p271:32:32-p272:64:64-i64:64-i128:128-f80:128-n8:16:32:64-S128"
target triple = "x86_64-pc-linux-gnu"

%class.cmComputeComponentGraph = type { ptr, %struct.cmGraphAdjacencyList, %"class.std::vector.0", %"class.std::vector.0", %"class.std::vector.5", %"class.std::vector.10", %"class.std::stack", i64, i64 }
%struct.cmGraphAdjacencyList = type { %"class.std::vector" }
%"class.std::vector" = type { %"struct.std::_Vector_base" }
%"struct.std::_Vector_base" = type { %"struct.std::_Vector_base<cmGraphEdgeList, std::allocator<cmGraphEdgeList>>::_Vector_impl" }
%"struct.std::_Vector_base<cmGraphEdgeList, std::allocator<cmGraphEdgeList>>::_Vector_impl" = type { %"struct.std::_Vector_base<cmGraphEdgeList, std::allocator<cmGraphEdgeList>>::_Vector_impl_data" }
%"struct.std::_Vector_base<cmGraphEdgeList, std::allocator<cmGraphEdgeList>>::_Vector_impl_data" = type { ptr, ptr, ptr }
%"class.std::vector.0" = type { %"struct.std::_Vector_base.1" }
%"struct.std::_Vector_base.1" = type { %"struct.std::_Vector_base<unsigned long, std::allocator<unsigned long>>::_Vector_impl" }
%"struct.std::_Vector_base<unsigned long, std::allocator<unsigned long>>::_Vector_impl" = type { %"struct.std::_Vector_base<unsigned long, std::allocator<unsigned long>>::_Vector_impl_data" }
%"struct.std::_Vector_base<unsigned long, std::allocator<unsigned long>>::_Vector_impl_data" = type { ptr, ptr, ptr }
%"class.std::vector.5" = type { %"struct.std::_Vector_base.6" }
%"struct.std::_Vector_base.6" = type { %"struct.std::_Vector_base<cmComputeComponentGraph::TarjanEntry, std::allocator<cmComputeComponentGraph::TarjanEntry>>::_Vector_impl" }
%"struct.std::_Vector_base<cmComputeComponentGraph::TarjanEntry, std::allocator<cmComputeComponentGraph::TarjanEntry>>::_Vector_impl" = type { %"struct.std::_Vector_base<cmComputeComponentGraph::TarjanEntry, std::allocator<cmComputeComponentGraph::TarjanEntry>>::_Vector_impl_data" }
%"struct.std::_Vector_base<cmComputeComponentGraph::TarjanEntry, std::allocator<cmComputeComponentGraph::TarjanEntry>>::_Vector_impl_data" = type { ptr, ptr, ptr }
%"class.std::vector.10" = type { %"struct.std::_Vector_base.11" }
%"struct.std::_Vector_base.11" = type { %"struct.std::_Vector_base<cmGraphNodeList, std::allocator<cmGraphNodeList>>::_Vector_impl" }
%"struct.std::_Vector_base<cmGraphNodeList, std::allocator<cmGraphNodeList>>::_Vector_impl" = type { %"struct.std::_Vector_base<cmGraphNodeList, std::allocator<cmGraphNodeList>>::_Vector_impl_data" }
%"struct.std::_Vector_base<cmGraphNodeList, std::allocator<cmGraphNodeList>>::_Vector_impl_data" = type { ptr, ptr, ptr }
%"class.std::stack" = type { %"class.std::deque" }
%"class.std::deque" = type { %"class.std::_Deque_base" }
%"class.std::_Deque_base" = type { %"struct.std::_Deque_base<unsigned long, std::allocator<unsigned long>>::_Deque_impl" }
%"struct.std::_Deque_base<unsigned long, std::allocator<unsigned long>>::_Deque_impl" = type { %"struct.std::_Deque_base<unsigned long, std::allocator<unsigned long>>::_Deque_impl_data" }
%"struct.std::_Deque_base<unsigned long, std::allocator<unsigned long>>::_Deque_impl_data" = type { ptr, i64, %"struct.std::_Deque_iterator", %"struct.std::_Deque_iterator" }
%"struct.std::_Deque_iterator" = type { ptr, ptr, ptr, ptr }
%struct.cmGraphEdgeList = type { %"class.std::vector.15" }
%"class.std::vector.15" = type { %"struct.std::_Vector_base.16" }
%"struct.std::_Vector_base.16" = type { %"struct.std::_Vector_base<cmGraphEdge, std::allocator<cmGraphEdge>>::_Vector_impl" }
%"struct.std::_Vector_base<cmGraphEdge, std::allocator<cmGraphEdge>>::_Vector_impl" = type { %"struct.std::_Vector_base<cmGraphEdge, std::allocator<cmGraphEdge>>::_Vector_impl_data" }
%"struct.std::_Vector_base<cmGraphEdge, std::allocator<cmGraphEdge>>::_Vector_impl_data" = type { ptr, ptr, ptr }

; Function Attrs: mustprogress nounwind uwtable
define linkonce_odr dso_local noundef i64 @_ZNKSt6vectorI15cmGraphEdgeListSaIS0_EE4sizeEv(ptr noundef nonnull align 8 dereferenceable(24) %0) #5 comdat align 2 {
  %2 = alloca ptr, align 8
  store ptr %0, ptr %2, align 8
  %3 = load ptr, ptr %2, align 8
  %4 = getelementptr inbounds %"struct.std::_Vector_base", ptr %3, i32 0, i32 0
  %5 = getelementptr inbounds %"struct.std::_Vector_base<cmGraphEdgeList, std::allocator<cmGraphEdgeList>>::_Vector_impl_data", ptr %4, i32 0, i32 1
  %6 = load ptr, ptr %5, align 8
  %7 = getelementptr inbounds %"struct.std::_Vector_base", ptr %3, i32 0, i32 0
  %8 = getelementptr inbounds %"struct.std::_Vector_base<cmGraphEdgeList, std::allocator<cmGraphEdgeList>>::_Vector_impl_data", ptr %7, i32 0, i32 0
  %9 = load ptr, ptr %8, align 8
  %10 = ptrtoint ptr %6 to i64
  %11 = ptrtoint ptr %9 to i64
  %12 = sub i64 %10, %11
  %13 = sdiv exact i64 %12, 24
  ret i64 %13
}

; Function Attrs: mustprogress nounwind uwtable
define linkonce_odr dso_local noundef i64 @_ZNKSt6vectorI15cmGraphNodeListSaIS0_EE4sizeEv(ptr noundef nonnull align 8 dereferenceable(24) %0) #5 comdat align 2 {
  %2 = alloca ptr, align 8
  store ptr %0, ptr %2, align 8
  %3 = load ptr, ptr %2, align 8
  %4 = getelementptr inbounds %"struct.std::_Vector_base.11", ptr %3, i32 0, i32 0
  %5 = getelementptr inbounds %"struct.std::_Vector_base<cmGraphNodeList, std::allocator<cmGraphNodeList>>::_Vector_impl_data", ptr %4, i32 0, i32 1
  %6 = load ptr, ptr %5, align 8
  %7 = getelementptr inbounds %"struct.std::_Vector_base.11", ptr %3, i32 0, i32 0
  %8 = getelementptr inbounds %"struct.std::_Vector_base<cmGraphNodeList, std::allocator<cmGraphNodeList>>::_Vector_impl_data", ptr %7, i32 0, i32 0
  %9 = load ptr, ptr %8, align 8
  %10 = ptrtoint ptr %6 to i64
  %11 = ptrtoint ptr %9 to i64
  %12 = sub i64 %10, %11
  %13 = sdiv exact i64 %12, 24
  ret i64 %13
}

; Function Attrs: mustprogress uwtable
define linkonce_odr dso_local void @_ZNSt6vectorI15cmGraphEdgeListSaIS0_EE6resizeEm(ptr noundef nonnull align 8 dereferenceable(24) %0, i64 noundef %1) #4 comdat align 2 {
  %3 = alloca ptr, align 8
  %4 = alloca i64, align 8
  store ptr %0, ptr %3, align 8
  store i64 %1, ptr %4, align 8
  %5 = load ptr, ptr %3, align 8
  %6 = load i64, ptr %4, align 8
  %7 = call noundef i64 @_ZNKSt6vectorI15cmGraphEdgeListSaIS0_EE4sizeEv(ptr noundef nonnull align 8 dereferenceable(24) %5) #3
  %8 = icmp ugt i64 %6, %7
  br i1 %8, label %9, label %13

9:                                                ; preds = %2
  %10 = load i64, ptr %4, align 8
  %11 = call noundef i64 @_ZNKSt6vectorI15cmGraphEdgeListSaIS0_EE4sizeEv(ptr noundef nonnull align 8 dereferenceable(24) %5) #3
  %12 = sub i64 %10, %11
  call void @_ZNSt6vectorI15cmGraphEdgeListSaIS0_EE17_M_default_appendEm(ptr noundef nonnull align 8 dereferenceable(24) %5, i64 noundef %12)
  br label %24

13:                                               ; preds = %2
  %14 = load i64, ptr %4, align 8
  %15 = call noundef i64 @_ZNKSt6vectorI15cmGraphEdgeListSaIS0_EE4sizeEv(ptr noundef nonnull align 8 dereferenceable(24) %5) #3
  %16 = icmp ult i64 %14, %15
  br i1 %16, label %17, label %23

17:                                               ; preds = %13
  %18 = getelementptr inbounds %"struct.std::_Vector_base", ptr %5, i32 0, i32 0
  %19 = getelementptr inbounds %"struct.std::_Vector_base<cmGraphEdgeList, std::allocator<cmGraphEdgeList>>::_Vector_impl_data", ptr %18, i32 0, i32 0
  %20 = load ptr, ptr %19, align 8
  %21 = load i64, ptr %4, align 8
  %22 = getelementptr inbounds %struct.cmGraphEdgeList, ptr %20, i64 %21
  call void @_ZNSt6vectorI15cmGraphEdgeListSaIS0_EE15_M_erase_at_endEPS0_(ptr noundef nonnull align 8 dereferenceable(24) %5, ptr noundef %22) #3
  br label %23

23:                                               ; preds = %17, %13
  br label %24

24:                                               ; preds = %23, %9
  ret void
}

; Function Attrs: mustprogress uwtable
define dso_local void @_ZN23cmComputeComponentGraph7ComputeEv(ptr noundef nonnull align 8 dereferenceable(224) %0) #4 align 2 {
  %2 = alloca ptr, align 8
  store ptr %0, ptr %2, align 8
  %3 = load ptr, ptr %2, align 8
  call void @_ZN23cmComputeComponentGraph6TarjanEv(ptr noundef nonnull align 8 dereferenceable(224) %3)
  %4 = getelementptr inbounds %class.cmComputeComponentGraph, ptr %3, i32 0, i32 1
  call void @_ZNSt6vectorI15cmGraphEdgeListSaIS0_EE6resizeEm(ptr noundef nonnull align 8 dereferenceable(24) %4, i64 noundef 0)
  %5 = getelementptr inbounds %class.cmComputeComponentGraph, ptr %3, i32 0, i32 1
  %6 = getelementptr inbounds %class.cmComputeComponentGraph, ptr %3, i32 0, i32 5
  %7 = call noundef i64 @_ZNKSt6vectorI15cmGraphNodeListSaIS0_EE4sizeEv(ptr noundef nonnull align 8 dereferenceable(24) %6) #3
  call void @_ZNSt6vectorI15cmGraphEdgeListSaIS0_EE6resizeEm(ptr noundef nonnull align 8 dereferenceable(24) %5, i64 noundef %7)
  call void @_ZN23cmComputeComponentGraph13TransferEdgesEv(ptr noundef nonnull align 8 dereferenceable(224) %3)
  ret void
}