; Function Attrs: mustprogress uwtable
define dso_local void @_ZN23cmComputeComponentGraph7ComputeEv(ptr noundef nonnull align 8 dereferenceable(224) %0) local_unnamed_addr #3 align 2 {
  tail call void @_ZN23cmComputeComponentGraph6TarjanEv(ptr noundef nonnull align 8 dereferenceable(224) %0)
  %2 = getelementptr inbounds nuw i8, ptr %0, i64 8
  %3 = getelementptr inbounds nuw i8, ptr %0, i64 16
  %4 = load ptr, ptr %3, align 8
  %5 = load ptr, ptr %2, align 8
  %.not = icmp eq ptr %4, %5
  br i1 %.not, label %_ZNSt6vectorI15cmGraphEdgeListSaIS0_EE6resizeEm.exit, label %6

6:                                                ; preds = %1
  tail call void @_ZNSt6vectorI15cmGraphEdgeListSaIS0_EE15_M_erase_at_endEPS0_(ptr noundef nonnull align 8 dereferenceable(24) %2, ptr noundef %5) #18
  %.pre = load ptr, ptr %3, align 8
  %.pre2 = load ptr, ptr %2, align 8
  br label %_ZNSt6vectorI15cmGraphEdgeListSaIS0_EE6resizeEm.exit

_ZNSt6vectorI15cmGraphEdgeListSaIS0_EE6resizeEm.exit: ; preds = %1, %6
  %7 = phi ptr [ %5, %1 ], [ %.pre2, %6 ]
  %8 = phi ptr [ %4, %1 ], [ %.pre, %6 ]
  %9 = getelementptr inbounds nuw i8, ptr %0, i64 104
  %10 = getelementptr inbounds nuw i8, ptr %0, i64 112
  %11 = load ptr, ptr %10, align 8
  %12 = load ptr, ptr %9, align 8
  %13 = ptrtoint ptr %11 to i64
  %14 = ptrtoint ptr %12 to i64
  %15 = sub i64 %13, %14
  %16 = sdiv exact i64 %15, 24
  %17 = ptrtoint ptr %8 to i64
  %18 = ptrtoint ptr %7 to i64
  %19 = sub i64 %17, %18
  %20 = sdiv exact i64 %19, 24
  %21 = icmp ugt i64 %16, %20
  br i1 %21, label %22, label %24

22:                                               ; preds = %_ZNSt6vectorI15cmGraphEdgeListSaIS0_EE6resizeEm.exit
  %23 = sub nuw nsw i64 %16, %20
  tail call void @_ZNSt6vectorI15cmGraphEdgeListSaIS0_EE17_M_default_appendEm(ptr noundef nonnull align 8 dereferenceable(24) %2, i64 noundef %23)
  br label %_ZNSt6vectorI15cmGraphEdgeListSaIS0_EE6resizeEm.exit1

24:                                               ; preds = %_ZNSt6vectorI15cmGraphEdgeListSaIS0_EE6resizeEm.exit
  %25 = icmp ult i64 %16, %20
  br i1 %25, label %26, label %_ZNSt6vectorI15cmGraphEdgeListSaIS0_EE6resizeEm.exit1

26:                                               ; preds = %24
  %27 = getelementptr inbounds i8, ptr %7, i64 %15
  tail call void @_ZNSt6vectorI15cmGraphEdgeListSaIS0_EE15_M_erase_at_endEPS0_(ptr noundef nonnull align 8 dereferenceable(24) %2, ptr noundef %27) #18
  br label %_ZNSt6vectorI15cmGraphEdgeListSaIS0_EE6resizeEm.exit1

_ZNSt6vectorI15cmGraphEdgeListSaIS0_EE6resizeEm.exit1: ; preds = %22, %24, %26
  tail call void @_ZN23cmComputeComponentGraph13TransferEdgesEv(ptr noundef nonnull align 8 dereferenceable(224) %0)
  ret void
}